; ModuleID = '4/2123.c'
source_filename = "4/2123.c"
target datalayout = "e-m:e-p270:32:32-p271:32:32-p272:64:64-i64:64-f80:128-n8:16:32:64-S128"
target triple = "x86_64-pc-linux-gnu"

@.str = private unnamed_addr constant [6 x i8] c"%d %d\00", align 1
@.str.1 = private unnamed_addr constant [3 x i8] c"%d\00", align 1
@.str.2 = private unnamed_addr constant [4 x i8] c"%d\0A\00", align 1

; Function Attrs: noinline nounwind uwtable
define dso_local i32 @main() #0 {
  %1 = alloca i32, align 4
  %2 = alloca i32, align 4
  %3 = alloca i32, align 4
  %4 = alloca i32, align 4
  %5 = alloca i32, align 4
  %6 = alloca i32, align 4
  %7 = alloca i32, align 4
  %8 = alloca [100 x [100 x i32]], align 16
  store i32 0, i32* %1, align 4
  store i32 0, i32* %7, align 4
  %9 = call i32 (i8*, ...) @__isoc99_scanf(i8* getelementptr inbounds ([6 x i8], [6 x i8]* @.str, i64 0, i64 0), i32* %2, i32* %3)
  store i32 0, i32* %4, align 4
  br label %10

10:                                               ; preds = %31, %0
  %11 = load i32, i32* %4, align 4
  %12 = load i32, i32* %2, align 4
  %13 = icmp slt i32 %11, %12
  br i1 %13, label %14, label %34

14:                                               ; preds = %10
  store i32 0, i32* %5, align 4
  br label %15

15:                                               ; preds = %27, %14
  %16 = load i32, i32* %5, align 4
  %17 = load i32, i32* %3, align 4
  %18 = icmp slt i32 %16, %17
  br i1 %18, label %19, label %30

19:                                               ; preds = %15
  %20 = load i32, i32* %4, align 4
  %21 = sext i32 %20 to i64
  %22 = getelementptr inbounds [100 x [100 x i32]], [100 x [100 x i32]]* %8, i64 0, i64 %21
  %23 = load i32, i32* %5, align 4
  %24 = sext i32 %23 to i64
  %25 = getelementptr inbounds [100 x i32], [100 x i32]* %22, i64 0, i64 %24
  %26 = call i32 (i8*, ...) @__isoc99_scanf(i8* getelementptr inbounds ([3 x i8], [3 x i8]* @.str.1, i64 0, i64 0), i32* %25)
  br label %27

27:                                               ; preds = %19
  %28 = load i32, i32* %5, align 4
  %29 = add nsw i32 %28, 1
  store i32 %29, i32* %5, align 4
  br label %15

30:                                               ; preds = %15
  br label %31

31:                                               ; preds = %30
  %32 = load i32, i32* %4, align 4
  %33 = add nsw i32 %32, 1
  store i32 %33, i32* %4, align 4
  br label %10

34:                                               ; preds = %10
  store i32 0, i32* %6, align 4
  store i32 0, i32* %4, align 4
  store i32 0, i32* %5, align 4
  br label %35

35:                                               ; preds = %82, %34
  %36 = load i32, i32* %5, align 4
  %37 = sext i32 %36 to i64
  %38 = getelementptr inbounds [100 x [100 x i32]], [100 x [100 x i32]]* %8, i64 0, i64 %37
  %39 = load i32, i32* %4, align 4
  %40 = sext i32 %39 to i64
  %41 = getelementptr inbounds [100 x i32], [100 x i32]* %38, i64 0, i64 %40
  %42 = load i32, i32* %41, align 4
  %43 = call i32 (i8*, ...) @printf(i8* getelementptr inbounds ([4 x i8], [4 x i8]* @.str.2, i64 0, i64 0), i32 %42)
  %44 = load i32, i32* %4, align 4
  %45 = load i32, i32* %3, align 4
  %46 = sub nsw i32 %45, 1
  %47 = icmp eq i32 %44, %46
  br i1 %47, label %48, label %54

48:                                               ; preds = %35
  %49 = load i32, i32* %5, align 4
  %50 = load i32, i32* %2, align 4
  %51 = sub nsw i32 %50, 1
  %52 = icmp eq i32 %49, %51
  br i1 %52, label %53, label %54

53:                                               ; preds = %48
  br label %83

54:                                               ; preds = %48, %35
  %55 = load i32, i32* %4, align 4
  %56 = icmp eq i32 %55, 0
  br i1 %56, label %62, label %57

57:                                               ; preds = %54
  %58 = load i32, i32* %5, align 4
  %59 = load i32, i32* %2, align 4
  %60 = sub nsw i32 %59, 1
  %61 = icmp eq i32 %58, %60
  br i1 %61, label %62, label %77

62:                                               ; preds = %57, %54
  store i32 0, i32* %5, align 4
  %63 = load i32, i32* %6, align 4
  %64 = add nsw i32 %63, 1
  store i32 %64, i32* %6, align 4
  %65 = load i32, i32* %6, align 4
  %66 = load i32, i32* %3, align 4
  %67 = icmp slt i32 %65, %66
  br i1 %67, label %68, label %70

68:                                               ; preds = %62
  %69 = load i32, i32* %6, align 4
  store i32 %69, i32* %4, align 4
  br label %76

70:                                               ; preds = %62
  %71 = load i32, i32* %3, align 4
  %72 = sub nsw i32 %71, 1
  store i32 %72, i32* %4, align 4
  %73 = load i32, i32* %7, align 4
  %74 = add nsw i32 %73, 1
  store i32 %74, i32* %7, align 4
  %75 = load i32, i32* %7, align 4
  store i32 %75, i32* %5, align 4
  br label %76

76:                                               ; preds = %70, %68
  br label %82

77:                                               ; preds = %57
  %78 = load i32, i32* %4, align 4
  %79 = sub nsw i32 %78, 1
  store i32 %79, i32* %4, align 4
  %80 = load i32, i32* %5, align 4
  %81 = add nsw i32 %80, 1
  store i32 %81, i32* %5, align 4
  br label %82

82:                                               ; preds = %77, %76
  br label %35

83:                                               ; preds = %53
  ret i32 0
}

declare dso_local i32 @__isoc99_scanf(i8*, ...) #1

declare dso_local i32 @printf(i8*, ...) #1


!llvm.module.flags = !{!0}
!llvm.ident = !{!1}

!0 = !{i32 1, !"wchar_size", i32 4}
!1 = !{!"clang version 10.0.0-4ubuntu1 "}
